target datalayout = "e-m:e-p270:32:32-p271:32:32-p272:64:64-i64:64-i128:128-f80:128-n8:16:32:64-S128"
target triple = "x86_64-pc-linux-gnu"

%struct.wtap = type { ptr, ptr, i8, i32, i32, ptr, ptr, ptr, i32, ptr, ptr, ptr, ptr, ptr, ptr, ptr, ptr, ptr, ptr, i32, i32, ptr, ptr, ptr, ptr }
%struct.stat = type { i64, i64, i64, i32, i32, i32, i32, i64, i64, i64, i64, %struct.timespec, %struct.timespec, %struct.timespec, [3 x i64] }
%struct.timespec = type { i64, i64 }

@.str.8 = private unnamed_addr constant [2 x i8] c"-\00", align 1

; Function Attrs: null_pointer_is_valid sspstrong uwtable
define zeroext i1 @wtap_fdreopen(ptr noundef %0, ptr noundef %1, ptr noundef %2) #0 {
  %4 = alloca i1, align 1
  %5 = alloca ptr, align 8
  %6 = alloca ptr, align 8
  %7 = alloca ptr, align 8
  %8 = alloca %struct.stat, align 8
  %9 = alloca i32, align 4
  store ptr %0, ptr %5, align 8
  store ptr %1, ptr %6, align 8
  store ptr %2, ptr %7, align 8
  call void @llvm.lifetime.start.p0(i64 144, ptr %8) #12
  %10 = load ptr, ptr %6, align 8
  %11 = call i32 @strcmp(ptr noundef %10, ptr noundef @.str.8) #14
  %12 = icmp eq i32 %11, 0
  br i1 %12, label %13, label %15

13:                                               ; preds = %3
  %14 = load ptr, ptr %7, align 8
  store i32 -16, ptr %14, align 4
  store i1 false, ptr %4, align 1
  store i32 1, ptr %9, align 4
  br label %73

15:                                               ; preds = %3
  %16 = load ptr, ptr %6, align 8
  %17 = call i32 @stat(ptr noundef %16, ptr noundef %8) #12
  %18 = icmp slt i32 %17, 0
  br i1 %18, label %19, label %23

19:                                               ; preds = %15
  %20 = call ptr @__errno_location() #15
  %21 = load i32, ptr %20, align 4
  %22 = load ptr, ptr %7, align 8
  store i32 %21, ptr %22, align 4
  store i1 false, ptr %4, align 1
  store i32 1, ptr %9, align 4
  br label %73

23:                                               ; preds = %15
  %24 = getelementptr inbounds nuw %struct.stat, ptr %8, i32 0, i32 3
  %25 = load i32, ptr %24, align 8
  %26 = and i32 %25, 61440
  %27 = icmp eq i32 %26, 4096
  br i1 %27, label %28, label %30

28:                                               ; preds = %23
  %29 = load ptr, ptr %7, align 8
  store i32 -2, ptr %29, align 4
  store i1 false, ptr %4, align 1
  store i32 1, ptr %9, align 4
  br label %73

30:                                               ; preds = %23
  %31 = getelementptr inbounds nuw %struct.stat, ptr %8, i32 0, i32 3
  %32 = load i32, ptr %31, align 8
  %33 = and i32 %32, 61440
  %34 = icmp eq i32 %33, 16384
  br i1 %34, label %35, label %37

35:                                               ; preds = %30
  %36 = load ptr, ptr %7, align 8
  store i32 21, ptr %36, align 4
  store i1 false, ptr %4, align 1
  store i32 1, ptr %9, align 4
  br label %73

37:                                               ; preds = %30
  %38 = getelementptr inbounds nuw %struct.stat, ptr %8, i32 0, i32 3
  %39 = load i32, ptr %38, align 8
  %40 = and i32 %39, 61440
  %41 = icmp eq i32 %40, 32768
  br i1 %41, label %44, label %42

42:                                               ; preds = %37
  %43 = load ptr, ptr %7, align 8
  store i32 -1, ptr %43, align 4
  store i1 false, ptr %4, align 1
  store i32 1, ptr %9, align 4
  br label %73

44:                                               ; preds = %37
  br label %45

45:                                               ; preds = %44
  br label %46

46:                                               ; preds = %45
  %47 = call ptr @__errno_location() #15
  store i32 -6, ptr %47, align 4
  %48 = load ptr, ptr %5, align 8
  %49 = getelementptr inbounds nuw %struct.wtap, ptr %48, i32 0, i32 1
  %50 = load ptr, ptr %49, align 8
  %51 = load ptr, ptr %6, align 8
  %52 = call zeroext i1 @file_fdreopen(ptr noundef %50, ptr noundef %51)
  br i1 %52, label %57, label %53

53:                                               ; preds = %46
  %54 = call ptr @__errno_location() #15
  %55 = load i32, ptr %54, align 4
  %56 = load ptr, ptr %7, align 8
  store i32 %55, ptr %56, align 4
  store i1 false, ptr %4, align 1
  store i32 1, ptr %9, align 4
  br label %73

57:                                               ; preds = %46
  %58 = load ptr, ptr %6, align 8
  %59 = load ptr, ptr %5, align 8
  %60 = getelementptr inbounds nuw %struct.wtap, ptr %59, i32 0, i32 12
  %61 = load ptr, ptr %60, align 8
  %62 = call i32 @strcmp(ptr noundef %58, ptr noundef %61) #14
  %63 = icmp ne i32 %62, 0
  br i1 %63, label %64, label %72

64:                                               ; preds = %57
  %65 = load ptr, ptr %5, align 8
  %66 = getelementptr inbounds nuw %struct.wtap, ptr %65, i32 0, i32 12
  %67 = load ptr, ptr %66, align 8
  call void @g_free(ptr noundef %67)
  %68 = load ptr, ptr %6, align 8
  %69 = call noalias ptr @g_strdup(ptr noundef %68)
  %70 = load ptr, ptr %5, align 8
  %71 = getelementptr inbounds nuw %struct.wtap, ptr %70, i32 0, i32 12
  store ptr %69, ptr %71, align 8
  br label %72

72:                                               ; preds = %64, %57
  store i1 true, ptr %4, align 1
  store i32 1, ptr %9, align 4
  br label %73

73:                                               ; preds = %72, %53, %42, %35, %28, %19, %13
  call void @llvm.lifetime.end.p0(i64 144, ptr %8) #12
  %74 = load i1, ptr %4, align 1
  ret i1 %74
}