; Function Attrs: null_pointer_is_valid sspstrong uwtable
define noundef zeroext i1 @wtap_fdreopen(ptr noundef captures(none) %0, ptr noundef %1, ptr noundef writeonly captures(none) %2) local_unnamed_addr #0 {
sub_0:
  %3 = alloca %struct.stat, align 8
  call void @llvm.lifetime.start.p0(i64 144, ptr nonnull %3) #24
  %4 = load i8, ptr %1, align 1
  %.not17 = icmp eq i8 %4, 45
  br i1 %.not17, label %.tail, label %.tail.thread

.tail:                                            ; preds = %sub_0
  %5 = getelementptr inbounds nuw i8, ptr %1, i64 1
  %6 = load i8, ptr %5, align 1
  %7 = icmp eq i8 %6, 0
  br i1 %7, label %8, label %.tail.thread

8:                                                ; preds = %.tail
  store i32 -16, ptr %2, align 4
  br label %34

.tail.thread:                                     ; preds = %sub_0, %.tail
  %9 = call i32 @stat(ptr noundef %1, ptr noundef nonnull %3) #24
  %10 = icmp slt i32 %9, 0
  br i1 %10, label %11, label %14

11:                                               ; preds = %.tail.thread
  %12 = tail call ptr @__errno_location() #25
  %13 = load i32, ptr %12, align 4
  store i32 %13, ptr %2, align 4
  br label %34

14:                                               ; preds = %.tail.thread
  %15 = getelementptr inbounds nuw i8, ptr %3, i64 24
  %16 = load i32, ptr %15, align 8
  %17 = trunc i32 %16 to i16
  %trunc = and i16 %17, -4096
  switch i16 %trunc, label %20 [
    i16 4096, label %18
    i16 16384, label %19
    i16 -32768, label %21
  ]

18:                                               ; preds = %14
  store i32 -2, ptr %2, align 4
  br label %34

19:                                               ; preds = %14
  store i32 21, ptr %2, align 4
  br label %34

20:                                               ; preds = %14
  store i32 -1, ptr %2, align 4
  br label %34

21:                                               ; preds = %14
  %22 = tail call ptr @__errno_location() #25
  store i32 -6, ptr %22, align 4
  %23 = getelementptr inbounds nuw i8, ptr %0, i64 8
  %24 = load ptr, ptr %23, align 8
  %25 = tail call zeroext i1 @file_fdreopen(ptr noundef %24, ptr noundef %1)
  br i1 %25, label %28, label %26

26:                                               ; preds = %21
  %27 = load i32, ptr %22, align 4
  store i32 %27, ptr %2, align 4
  br label %34

28:                                               ; preds = %21
  %29 = getelementptr inbounds nuw i8, ptr %0, i64 88
  %30 = load ptr, ptr %29, align 8
  %31 = tail call i32 @strcmp(ptr noundef %1, ptr noundef %30) #23
  %.not = icmp eq i32 %31, 0
  br i1 %.not, label %34, label %32

32:                                               ; preds = %28
  tail call void @g_free(ptr noundef %30)
  %33 = tail call noalias ptr @g_strdup(ptr noundef %1)
  store ptr %33, ptr %29, align 8
  br label %34

34:                                               ; preds = %28, %32, %26, %20, %19, %18, %11, %8
  %.0 = phi i1 [ false, %8 ], [ false, %11 ], [ false, %18 ], [ false, %19 ], [ false, %26 ], [ false, %20 ], [ true, %32 ], [ true, %28 ]
  call void @llvm.lifetime.end.p0(i64 144, ptr nonnull %3) #24
  ret i1 %.0
}